; Function Attrs: nounwind uwtable
define internal noundef i32 @diff_opt_ignore_submodules(ptr noundef readonly captures(none) %0, ptr noundef %1, i32 noundef %2) #0 {
  %.not = icmp eq i32 %2, 0
  br i1 %.not, label %5, label %4

4:                                                ; preds = %3
  tail call void (ptr, i32, ptr, ...) @BUG_fl(ptr noundef nonnull @.str.256, i32 noundef 5387, ptr noundef nonnull @.str.331) #34
  unreachable

5:                                                ; preds = %3
  %6 = getelementptr inbounds nuw i8, ptr %0, i64 16
  %7 = load ptr, ptr %6, align 8, !tbaa !215
  %.not5 = icmp eq ptr %1, null
  %spec.store.select = select i1 %.not5, ptr @.str.294, ptr %1
  %8 = getelementptr inbounds nuw i8, ptr %7, i64 204
  store i32 1, ptr %8, align 4, !tbaa !163
  tail call void @handle_ignore_submodules_arg(ptr noundef %7, ptr noundef nonnull %spec.store.select) #32
  ret i32 0
}